target datalayout = "e-m:e-p270:32:32-p271:32:32-p272:64:64-i64:64-i128:128-f80:128-n8:16:32:64-S128"
target triple = "x86_64-pc-linux-gnu"

%struct.jv_parser = type { ptr, i32, i32, i32, i32, i32, i32, ptr, i32, i32, %struct.jv, i32, %struct.jv, %struct.jv, ptr, i32, i32, i32, i32, %struct.dtoa_context, i32, i8 }
%struct.jv = type { i8, i8, i16, i32, %union.anon }
%union.anon = type { ptr }
%struct.dtoa_context = type { [8 x ptr], ptr }

; Function Attrs: nounwind uwtable
define dso_local i32 @jv_parser_remaining(ptr noundef %0) #0 {
  %2 = alloca i32, align 4
  %3 = alloca ptr, align 8
  store ptr %0, ptr %3, align 8, !tbaa !8
  %4 = load ptr, ptr %3, align 8, !tbaa !8
  %5 = getelementptr inbounds nuw %struct.jv_parser, ptr %4, i32 0, i32 0
  %6 = load ptr, ptr %5, align 8, !tbaa !30
  %7 = icmp eq ptr %6, null
  br i1 %7, label %8, label %9

8:                                                ; preds = %1
  store i32 0, ptr %2, align 4
  br label %17

9:                                                ; preds = %1
  %10 = load ptr, ptr %3, align 8, !tbaa !8
  %11 = getelementptr inbounds nuw %struct.jv_parser, ptr %10, i32 0, i32 1
  %12 = load i32, ptr %11, align 8, !tbaa !33
  %13 = load ptr, ptr %3, align 8, !tbaa !8
  %14 = getelementptr inbounds nuw %struct.jv_parser, ptr %13, i32 0, i32 2
  %15 = load i32, ptr %14, align 4, !tbaa !32
  %16 = sub nsw i32 %12, %15
  store i32 %16, ptr %2, align 4
  br label %17

17:                                               ; preds = %9, %8
  %18 = load i32, ptr %2, align 4
  ret i32 %18
}